; Function Attrs: mustprogress nofree norecurse nosync nounwind sspstrong willreturn memory(argmem: read) uwtable
define internal zeroext i1 @pm_encoding_mac_thai_isupper_char(ptr noundef readonly captures(none) %0, i64 %1) #2 {
  %3 = load i8, ptr %0, align 1, !tbaa !7
  %4 = zext i8 %3 to i64
  %5 = getelementptr [256 x i8], ptr @pm_encoding_windows_874_table, i64 0, i64 %4
  %6 = load i8, ptr %5, align 1, !tbaa !7
  %7 = and i8 %6, 4
  %8 = icmp ne i8 %7, 0
  ret i1 %8
}